(dp0
Vengine
p1
Vpdflatex
p2
sVpackages
p3
c__builtin__
set
p4
((lp5
Vsiunitx
p6
aVpgf-umlsd
p7
aVglossaries
p8
aVbooktabs
p9
aVamsmath
p10
aVinputenc
p11
aVsetspace
p12
aVxspace
p13
aVforeign
p14
aVcleveref
p15
aVmultirow
p16
aVtabularx
p17
aVfontenc
p18
aVifthen
p19
aVcaption
p20
aVgraphicx
p21
aVsubcaption
p22
aVamssymb
p23
atp24
Rp25
sVfiles_with_guttermarks
p26
g4
((lp27
V/Users/veleno/workspace-git/benchmark-suite-serverless-computing/report/DEBS20/evaluation.tex
p28
aV/Users/veleno/workspace-git/benchmark-suite-serverless-computing/report/DEBS20/architecture.tex
p29
aV/Users/veleno/workspace-git/benchmark-suite-serverless-computing/report/DEBS20/./evaluation.tex
p30
aV/Users/veleno/workspace-git/benchmark-suite-serverless-computing/report/DEBS20/./architecture.tex
p31
aV/Users/veleno/workspace-git/benchmark-suite-serverless-computing/report/DEBS20/./macros.tex
p32
aS'main.tex'
p33
aV/Users/veleno/workspace-git/benchmark-suite-serverless-computing/report/DEBS20/./main.tex
p34
aV/Users/veleno/workspace-git/benchmark-suite-serverless-computing/report/DEBS20/./abstract.tex
p35
atp36
Rp37
sVsynctex
p38
I01
s.