(dp0
Vengine
p1
Vpdflatex
p2
sVpackages
p3
c__builtin__
set
p4
((lp5
Vxcolor
p6
aVbooktabs
p7
aVamsmath
p8
aVxspace
p9
aVpifont
p10
aVifthen
p11
aVsubcaption
p12
aVsiunitx
p13
aVtcolorbox
p14
aVglossaries
p15
aVsetspace
p16
aVinputenc
p17
aVcleveref
p18
aVmultirow
p19
aVpgf-umlsd
p20
aVgraphicx
p21
aVlistings
p22
aVforeign
p23
aVcaption
p24
aVtabularx
p25
aVfontenc
p26
aVcsquotes
p27
atp28
Rp29
sVfiles_with_guttermarks
p30
g4
((lp31
V/Users/veleno/workspace-UNINE/MasterThesis/PascalMaissen/benchmark-suite-serverless-computing/report/DEBS20/arxiv/./evaluation.tex
p32
aV/Users/veleno/workspace-UNINE/MasterThesis/PascalMaissen/benchmark-suite-serverless-computing/report/DEBS20/arxiv/./background.tex
p33
aV/Users/veleno/workspace-UNINE/MasterThesis/PascalMaissen/benchmark-suite-serverless-computing/report/DEBS20/arxiv/evaluation.tex
p34
aV/Users/veleno/workspace-UNINE/MasterThesis/PascalMaissen/benchmark-suite-serverless-computing/report/DEBS20/arxiv/background.tex
p35
aV/Users/veleno/workspace-UNINE/MasterThesis/PascalMaissen/benchmark-suite-serverless-computing/report/DEBS20/arxiv/./main.tex
p36
aV/Users/veleno/workspace-UNINE/MasterThesis/PascalMaissen/benchmark-suite-serverless-computing/report/DEBS20/arxiv/runtimes.tex
p37
aS'main.tex'
p38
aV/Users/veleno/workspace-UNINE/MasterThesis/PascalMaissen/benchmark-suite-serverless-computing/report/DEBS20/arxiv/./architecture.tex
p39
aV/Users/veleno/workspace-UNINE/MasterThesis/PascalMaissen/benchmark-suite-serverless-computing/report/DEBS20/arxiv/architecture.tex
p40
aV/Users/veleno/workspace-UNINE/MasterThesis/PascalMaissen/benchmark-suite-serverless-computing/report/DEBS20/arxiv/introduction.tex
p41
atp42
Rp43
sVsynctex
p44
I01
s.